; Function Attrs: null_pointer_is_valid sspstrong uwtable
define internal range(i32 4, 65540) i32 @dissect_aim_sst_buddy_up_req(ptr noundef %0, ptr readnone captures(none) %1, ptr noundef %2) #0 {
  %4 = load i32, ptr @hf_aim_sst_ref_num, align 4
  %5 = tail call ptr @proto_tree_add_item(ptr noundef %2, i32 noundef %4, ptr noundef %0, i32 noundef 0, i32 noundef 2, i32 noundef 0)
  %6 = load i32, ptr @hf_aim_sst_icon_size, align 4
  %7 = tail call ptr @proto_tree_add_item(ptr noundef %2, i32 noundef %6, ptr noundef %0, i32 noundef 2, i32 noundef 2, i32 noundef 0)
  %8 = tail call zeroext i16 @tvb_get_ntohs(ptr noundef %0, i32 noundef 2)
  %.not = icmp eq i16 %8, 0
  br i1 %.not, label %._crit_edge, label %9

9:                                                ; preds = %3
  %10 = load i32, ptr @hf_aim_sst_icon, align 4
  %11 = zext i16 %8 to i32
  %12 = tail call ptr @proto_tree_add_item(ptr noundef %2, i32 noundef %10, ptr noundef %0, i32 noundef 4, i32 noundef %11, i32 noundef 0)
  %13 = add nuw nsw i32 %11, 4
  br label %._crit_edge

._crit_edge:                                      ; preds = %3, %9
  %.pre-phi = phi i32 [ %13, %9 ], [ 4, %3 ]
  ret i32 %.pre-phi
}